target datalayout = "e-m:e-p270:32:32-p271:32:32-p272:64:64-i64:64-i128:128-f80:128-n8:16:32:64-S128"
target triple = "x86_64-pc-linux-gnu"

%class.LibRaw = type { ptr, %struct.libraw_data_t, ptr, %struct.libraw_internal_data_t, [2048 x %struct.decode], ptr, ptr, [10 x %struct.tiff_ifd_t], %class.libraw_memmgr, %struct.libraw_callbacks_t, { i64, i64 }, { i64, i64 }, { i64, i64 }, ptr, ptr, ptr, i64, ptr, ptr, ptr, ptr }
%struct.libraw_data_t = type { ptr, %struct.libraw_image_sizes_t, %struct.libraw_iparams_t, %struct.libraw_lensinfo_t, %struct.libraw_makernotes_t, %struct.libraw_shootinginfo_t, %struct.libraw_output_params_t, %struct.libraw_raw_unpack_params_t, i32, i32, %struct.libraw_colordata_t, %struct.libraw_imgother_t, %struct.libraw_thumbnail_t, %struct.libraw_thumbnail_list_t, %struct.libraw_rawdata_t, ptr }
%struct.libraw_image_sizes_t = type { i16, i16, i16, i16, i16, i16, i16, i16, i32, double, i32, [8 x [4 x i32]], i16, [2 x %struct.libraw_raw_inset_crop_t] }
%struct.libraw_raw_inset_crop_t = type { i16, i16, i16, i16 }
%struct.libraw_iparams_t = type { [4 x i8], [64 x i8], [64 x i8], [64 x i8], [64 x i8], [64 x i8], i32, i32, i32, i32, i32, i32, [6 x [6 x i8]], [6 x [6 x i8]], [5 x i8], i32, ptr }
%struct.libraw_lensinfo_t = type { float, float, float, float, float, [128 x i8], [128 x i8], [128 x i8], [128 x i8], i16, %struct.libraw_nikonlens_t, %struct.libraw_dnglens_t, %struct.libraw_makernotes_lens_t }
%struct.libraw_nikonlens_t = type { float, i8, i8, i8, i8 }
%struct.libraw_dnglens_t = type { float, float, float, float }
%struct.libraw_makernotes_lens_t = type { i64, [128 x i8], i16, i16, i64, i16, i16, [64 x i8], i16, [16 x i8], [16 x i8], float, float, float, float, float, float, float, float, float, float, float, float, float, float, float, i64, [128 x i8], i64, [128 x i8], i64, [128 x i8], i16, float }
%struct.libraw_makernotes_t = type { %struct.libraw_canon_makernotes_t, %struct.libraw_nikon_makernotes_t, %struct.libraw_hasselblad_makernotes_t, %struct.libraw_fuji_info_t, %struct.libraw_olympus_makernotes_t, %struct.libraw_sony_info_t, %struct.libraw_kodak_makernotes_t, %struct.libraw_panasonic_makernotes_t, %struct.libraw_pentax_makernotes_t, %struct.libraw_p1_makernotes_t, %struct.libraw_ricoh_makernotes_t, %struct.libraw_samsung_makernotes_t, %struct.libraw_metadata_common_t }
%struct.libraw_canon_makernotes_t = type { i32, i32, i32, i32, [4 x i32], i32, [4 x i32], i16, i16, i8, i16, i16, i16, i16, i16, i16, i16, i16, i16, i16, i16, i16, i16, i32, float, i16, i16, i16, i32, i16, i32, i32, i16, i32, %struct.libraw_area_t, %struct.libraw_area_t, %struct.libraw_area_t, %struct.libraw_area_t, %struct.libraw_area_t, [2 x i16] }
%struct.libraw_area_t = type { i16, i16, i16, i16 }
%struct.libraw_nikon_makernotes_t = type { double, i16, i16, [7 x i8], i8, i8, [13 x i8], [20 x i8], [4 x i8], [4 x i8], [4 x i8], i8, i8, i8, i8, i8, [2 x i8], i8, i8, i8, i8, i8, [4 x i8], [4 x i8], i8, i16, i32, i32, i32, i32, [4 x double], i8, i8, i8, i32, i32, i32, i8, [4 x i16], i16, %struct.libraw_sensor_highspeed_crop_t, i16, i16, i16, i32, [20 x i8], [20 x i8], i32, i16, double, double, double }
%struct.libraw_sensor_highspeed_crop_t = type { i16, i16, i16, i16 }
%struct.libraw_hasselblad_makernotes_t = type { i32, double, [8 x i8], [64 x i8], [64 x i8], i32, i32, i32, i32, [32 x i8], [64 x i8], i32, [2 x i32], [2 x i32], [4 x [3 x double]] }
%struct.libraw_fuji_info_t = type { float, i16, i16, i16, i16, i16, i16, i16, i16, [33 x i8], [33 x i8], float, i16, i16, [2 x i16], i16, i32, i32, i16, [3 x i16], i16, i16, i16, i16, i16, i32, i16, [13 x i8], [5 x i8], [5 x i8], i32, i16, i32, i16, [9 x i16], [32 x i32], i32, i32, i32, [2 x float], i32 }
%struct.libraw_olympus_makernotes_t = type { [6 x i8], i16, [2 x i32], [5 x i16], i16, [2 x i16], i16, i16, [64 x i32], [5 x double], i16, i8, [3 x i16], [3 x i32], i16, i16, i16, i16, double, [4 x i16], [2 x i32], i8, i32, i16, i16 }
%struct.libraw_sony_info_t = type { i16, i8, i8, i32, i8, i32, i8, i8, i16, [2 x i16], i8, i8, i16, [10 x i8], i8, i8, [4 x i16], i16, i8, i8, i8, i16, i32, i16, [2 x i16], i16, i16, i16, i16, i16, i16, i16, i32, float, i16, i32, i32, i16, [20 x i8], i32, i16, i32, i8, i8, i16, i16, i16, i16, i16, i16, i16, i16, i16, i32, i16, [16 x i8], float }
%struct.libraw_kodak_makernotes_t = type { i16, i16, i16, i16, i16, i16, [3 x [3 x float]], [3 x [3 x float]], [3 x [3 x float]], [3 x [3 x float]], [3 x [3 x float]], [3 x [3 x float]], i16, i16, i16, i16, float, float }
%struct.libraw_panasonic_makernotes_t = type { i16, i16, [8 x float], i32, float, [3 x i32], i16, i16, i32, i32 }
%struct.libraw_pentax_makernotes_t = type { [4 x i8], [2 x i16], [2 x i16], i16, i32, i32, i16, i16, i8, i8, i16 }
%struct.libraw_p1_makernotes_t = type { [64 x i8], [64 x i8], [256 x i8], [64 x i8] }
%struct.libraw_ricoh_makernotes_t = type { i16, [2 x i32], [2 x i32], i16, i32, i32, i32, i32, i16, i16, i16, i16, i16, i16, double, double }
%struct.libraw_samsung_makernotes_t = type { [4 x i32], [4 x i32], [2 x i32], [11 x i32], double, i32, [32 x i8] }
%struct.libraw_metadata_common_t = type { float, float, float, float, float, float, float, float, float, float, float, float, float, float, float, float, i16, [128 x i8], float, [4 x %struct.libraw_afinfo_item_t], i32 }
%struct.libraw_afinfo_item_t = type { i32, i16, i32, i32, ptr }
%struct.libraw_shootinginfo_t = type { i16, i16, i16, i16, i16, i16, i16, [64 x i8], [64 x i8] }
%struct.libraw_output_params_t = type { [4 x i32], [4 x i32], [4 x double], [6 x double], [4 x float], float, float, i32, i32, i32, i32, i32, i32, i32, ptr, ptr, ptr, ptr, i32, i32, i32, i32, i32, i32, [4 x i32], i32, i32, float, float, i32, i32, i32, i32, i32, i32, i32, i32, float, float, i32, i32 }
%struct.libraw_raw_unpack_params_t = type { i32, i32, i32, i32, i32, i32, i32, float, [5 x i8], ptr }
%struct.libraw_colordata_t = type { [65536 x i16], [4104 x i32], i32, i32, i32, [4 x i64], float, float, [8 x [8 x i16]], [4 x float], [4 x float], [3 x [4 x float]], [3 x [4 x float]], [3 x [4 x float]], [4 x [3 x float]], %struct.ph1_t, float, float, [64 x i8], [64 x i8], [64 x i8], [64 x i8], [17 x i8], [64 x i8], ptr, i32, [8 x i32], [2 x %struct.libraw_dng_color_t], %struct.libraw_dng_levels_t, [256 x [4 x i32]], [64 x [5 x float]], i32, [2 x %struct.libraw_P1_color_t], i32, i32 }
%struct.ph1_t = type { i32, i32, i32, i32, i32, i32, i32, i32, float }
%struct.libraw_dng_color_t = type { i32, i16, [4 x [4 x float]], [4 x [3 x float]], [3 x [4 x float]] }
%struct.libraw_dng_levels_t = type { i32, [4104 x i32], i32, [4104 x float], float, [4 x i32], [4 x i16], [4 x float], i32, [4 x float], [4 x float], float, float }
%struct.libraw_P1_color_t = type { [9 x float] }
%struct.libraw_imgother_t = type { float, float, float, float, i64, i32, [32 x i32], %struct.libraw_gps_info_t, [512 x i8], [64 x i8], [4 x float] }
%struct.libraw_gps_info_t = type { [3 x float], [3 x float], [3 x float], float, i8, i8, i8, i8, i8 }
%struct.libraw_thumbnail_t = type { i32, i16, i16, i32, i32, ptr }
%struct.libraw_thumbnail_list_t = type { i32, [8 x %struct.libraw_thumbnail_item_t] }
%struct.libraw_thumbnail_item_t = type { i32, i16, i16, i16, i32, i32, i64 }
%struct.libraw_rawdata_t = type { ptr, ptr, ptr, ptr, ptr, ptr, ptr, ptr, ptr, %struct.libraw_iparams_t, %struct.libraw_image_sizes_t, %struct.libraw_internal_output_params_t, %struct.libraw_colordata_t }
%struct.libraw_internal_output_params_t = type { i32, i32, i32, i16, i16 }
%struct.libraw_internal_data_t = type { %struct.internal_data_t, %struct.libraw_internal_output_params_t, %struct.output_data_t, %struct.identify_data_t, %struct.unpacker_data_t }
%struct.internal_data_t = type { ptr, ptr, i32, ptr, i64, i64, [4 x i32] }
%struct.output_data_t = type { ptr, ptr }
%struct.identify_data_t = type { i32, i64, i64, i32, i32, i32 }
%struct.unpacker_data_t = type { i16, [4 x i16], [3 x i16], i32, i64, i64, i64, i64, i64, i64, i32, i32, i32, i32, i32, i32, i32, i32, i32, i32, i32, i32, i32, i32, i32, i32, i32, i64, i32, i32, i32, i32, i32, i32, i32, i32, i32, %struct.pana8_tags_t, [16 x %struct.crx_data_header_t], i32, i32, i16, i16, i32, i32, i32, i32, i32, i32, i32, [20 x i32], i16 }
%struct.pana8_tags_t = type { [6 x i32], [6 x i16], i16, [4 x i16], [17 x i16], [17 x i16], [17 x i16], i16, i16, [5 x i64], [5 x i16], [5 x i32], [5 x i16], [5 x i16] }
%struct.crx_data_header_t = type { i32, i32, i32, i32, i32, i32, i32, i32, i32, i32, i32, i32, i32, i32, i32, i64, i32, ptr, i32, i32, i32, ptr, i32, ptr }
%struct.decode = type { [2 x ptr], i32 }
%struct.tiff_ifd_t = type { i32, i32, i32, i32, i32, i32, i32, i32, i32, i32, i32, i32, i32, i32, i32, ptr, i32, ptr, i32, i32, i32, i32, i32, i32, i32, float, i64, i64, i32, [2 x %struct.libraw_dng_color_t], %struct.libraw_dng_levels_t, i32 }
%class.libraw_memmgr = type <{ ptr, i32, [4 x i8] }>
%struct.libraw_callbacks_t = type { ptr, ptr, ptr, ptr, ptr, ptr, ptr, ptr, ptr, ptr, ptr, ptr, ptr, ptr, ptr, ptr, ptr }

; Function Attrs: mustprogress nounwind uwtable
define void @_ZN6LibRaw19process_Sony_0x9402EPht(ptr noundef nonnull align 8 dereferenceable(767680) %0, ptr noundef %1, i16 noundef zeroext %2) #2 align 2 {
  %4 = alloca ptr, align 8
  %5 = alloca ptr, align 8
  %6 = alloca i16, align 2
  store ptr %0, ptr %4, align 8, !tbaa !6
  store ptr %1, ptr %5, align 8, !tbaa !102
  store i16 %2, ptr %6, align 2, !tbaa !94
  %7 = load ptr, ptr %4, align 8
  %8 = load i16, ptr %6, align 2, !tbaa !94
  %9 = zext i16 %8 to i32
  %10 = icmp slt i32 %9, 23
  br i1 %10, label %11, label %12

11:                                               ; preds = %3
  br label %121

12:                                               ; preds = %3
  %13 = getelementptr inbounds nuw %class.LibRaw, ptr %7, i32 0, i32 1
  %14 = getelementptr inbounds nuw %struct.libraw_data_t, ptr %13, i32 0, i32 4
  %15 = getelementptr inbounds nuw %struct.libraw_makernotes_t, ptr %14, i32 0, i32 5
  %16 = getelementptr inbounds nuw %struct.libraw_sony_info_t, ptr %15, i32 0, i32 0
  %17 = load i16, ptr %16, align 8, !tbaa !91
  %18 = zext i16 %17 to i32
  %19 = icmp eq i32 %18, 4
  br i1 %19, label %40, label %20

20:                                               ; preds = %12
  %21 = getelementptr inbounds nuw %class.LibRaw, ptr %7, i32 0, i32 1
  %22 = getelementptr inbounds nuw %struct.libraw_data_t, ptr %21, i32 0, i32 4
  %23 = getelementptr inbounds nuw %struct.libraw_makernotes_t, ptr %22, i32 0, i32 5
  %24 = getelementptr inbounds nuw %struct.libraw_sony_info_t, ptr %23, i32 0, i32 0
  %25 = load i16, ptr %24, align 8, !tbaa !91
  %26 = zext i16 %25 to i32
  %27 = icmp eq i32 %26, 6
  br i1 %27, label %40, label %28

28:                                               ; preds = %20
  %29 = load ptr, ptr %5, align 8, !tbaa !102
  %30 = getelementptr inbounds i8, ptr %29, i64 0
  %31 = load i8, ptr %30, align 1, !tbaa !104
  %32 = zext i8 %31 to i32
  %33 = icmp eq i32 %32, 5
  br i1 %33, label %40, label %34

34:                                               ; preds = %28
  %35 = load ptr, ptr %5, align 8, !tbaa !102
  %36 = getelementptr inbounds i8, ptr %35, i64 0
  %37 = load i8, ptr %36, align 1, !tbaa !104
  %38 = zext i8 %37 to i32
  %39 = icmp eq i32 %38, 255
  br i1 %39, label %40, label %41

40:                                               ; preds = %34, %28, %20, %12
  br label %121

41:                                               ; preds = %34
  %42 = load ptr, ptr %5, align 8, !tbaa !102
  %43 = getelementptr inbounds i8, ptr %42, i64 2
  %44 = load i8, ptr %43, align 1, !tbaa !104
  %45 = zext i8 %44 to i32
  %46 = icmp eq i32 %45, 255
  br i1 %46, label %47, label %60

47:                                               ; preds = %41
  %48 = load ptr, ptr %5, align 8, !tbaa !102
  %49 = getelementptr inbounds i8, ptr %48, i64 4
  %50 = load i8, ptr %49, align 1, !tbaa !104
  %51 = zext i8 %50 to i64
  %52 = getelementptr inbounds nuw [257 x i8], ptr @_ZL16SonySubstitution, i64 0, i64 %51
  %53 = load i8, ptr %52, align 1, !tbaa !104
  %54 = zext i8 %53 to i16
  %55 = sitofp i16 %54 to float
  %56 = getelementptr inbounds nuw %class.LibRaw, ptr %7, i32 0, i32 1
  %57 = getelementptr inbounds nuw %struct.libraw_data_t, ptr %56, i32 0, i32 4
  %58 = getelementptr inbounds nuw %struct.libraw_makernotes_t, ptr %57, i32 0, i32 12
  %59 = getelementptr inbounds nuw %struct.libraw_metadata_common_t, ptr %58, i32 0, i32 6
  store float %55, ptr %59, align 8, !tbaa !134
  br label %60

60:                                               ; preds = %47, %41
  %61 = getelementptr inbounds nuw %class.LibRaw, ptr %7, i32 0, i32 1
  %62 = getelementptr inbounds nuw %struct.libraw_data_t, ptr %61, i32 0, i32 5
  %63 = getelementptr inbounds nuw %struct.libraw_shootinginfo_t, ptr %62, i32 0, i32 1
  %64 = load i16, ptr %63, align 2, !tbaa !135
  %65 = sext i16 %64 to i32
  %66 = icmp eq i32 %65, -1
  br i1 %66, label %67, label %80

67:                                               ; preds = %60
  %68 = load ptr, ptr %5, align 8, !tbaa !102
  %69 = getelementptr inbounds i8, ptr %68, i64 22
  %70 = load i8, ptr %69, align 1, !tbaa !104
  %71 = zext i8 %70 to i64
  %72 = getelementptr inbounds nuw [257 x i8], ptr @_ZL16SonySubstitution, i64 0, i64 %71
  %73 = load i8, ptr %72, align 1, !tbaa !104
  %74 = zext i8 %73 to i32
  %75 = and i32 %74, 127
  %76 = trunc i32 %75 to i16
  %77 = getelementptr inbounds nuw %class.LibRaw, ptr %7, i32 0, i32 1
  %78 = getelementptr inbounds nuw %struct.libraw_data_t, ptr %77, i32 0, i32 5
  %79 = getelementptr inbounds nuw %struct.libraw_shootinginfo_t, ptr %78, i32 0, i32 1
  store i16 %76, ptr %79, align 2, !tbaa !135
  br label %80

80:                                               ; preds = %67, %60
  %81 = load i16, ptr %6, align 2, !tbaa !94
  %82 = zext i16 %81 to i32
  %83 = icmp sge i32 %82, 24
  br i1 %83, label %84, label %96

84:                                               ; preds = %80
  %85 = load ptr, ptr %5, align 8, !tbaa !102
  %86 = getelementptr inbounds i8, ptr %85, i64 23
  %87 = load i8, ptr %86, align 1, !tbaa !104
  %88 = zext i8 %87 to i64
  %89 = getelementptr inbounds nuw [257 x i8], ptr @_ZL16SonySubstitution, i64 0, i64 %88
  %90 = load i8, ptr %89, align 1, !tbaa !104
  %91 = zext i8 %90 to i16
  %92 = getelementptr inbounds nuw %class.LibRaw, ptr %7, i32 0, i32 1
  %93 = getelementptr inbounds nuw %struct.libraw_data_t, ptr %92, i32 0, i32 4
  %94 = getelementptr inbounds nuw %struct.libraw_makernotes_t, ptr %93, i32 0, i32 5
  %95 = getelementptr inbounds nuw %struct.libraw_sony_info_t, ptr %94, i32 0, i32 8
  store i16 %91, ptr %95, align 2, !tbaa !136
  br label %96

96:                                               ; preds = %84, %80
  %97 = load i16, ptr %6, align 2, !tbaa !94
  %98 = zext i16 %97 to i32
  %99 = icmp sge i32 %98, 46
  br i1 %99, label %100, label %120

100:                                              ; preds = %96
  %101 = getelementptr inbounds nuw %class.LibRaw, ptr %7, i32 0, i32 1
  %102 = getelementptr inbounds nuw %struct.libraw_data_t, ptr %101, i32 0, i32 4
  %103 = getelementptr inbounds nuw %struct.libraw_makernotes_t, ptr %102, i32 0, i32 5
  %104 = getelementptr inbounds nuw %struct.libraw_sony_info_t, ptr %103, i32 0, i32 0
  %105 = load i16, ptr %104, align 8, !tbaa !91
  %106 = zext i16 %105 to i32
  %107 = icmp ne i32 %106, 1
  br i1 %107, label %108, label %120

108:                                              ; preds = %100
  %109 = load ptr, ptr %5, align 8, !tbaa !102
  %110 = getelementptr inbounds i8, ptr %109, i64 45
  %111 = load i8, ptr %110, align 1, !tbaa !104
  %112 = zext i8 %111 to i64
  %113 = getelementptr inbounds nuw [257 x i8], ptr @_ZL16SonySubstitution, i64 0, i64 %112
  %114 = load i8, ptr %113, align 1, !tbaa !104
  %115 = zext i8 %114 to i16
  %116 = getelementptr inbounds nuw %class.LibRaw, ptr %7, i32 0, i32 1
  %117 = getelementptr inbounds nuw %struct.libraw_data_t, ptr %116, i32 0, i32 4
  %118 = getelementptr inbounds nuw %struct.libraw_makernotes_t, ptr %117, i32 0, i32 5
  %119 = getelementptr inbounds nuw %struct.libraw_sony_info_t, ptr %118, i32 0, i32 17
  store i16 %115, ptr %119, align 8, !tbaa !137
  br label %120

120:                                              ; preds = %108, %100, %96
  br label %121

121:                                              ; preds = %120, %40, %11
  ret void
}