; Function Attrs: mustprogress nofree norecurse nosync nounwind willreturn memory(argmem: readwrite) uwtable
define void @_ZN6LibRaw19process_Sony_0x9402EPht(ptr noundef nonnull align 8 captures(none) dereferenceable(767680) %0, ptr noundef readonly captures(none) %1, i16 noundef zeroext %2) local_unnamed_addr #5 align 2 {
  %4 = icmp ult i16 %2, 23
  br i1 %4, label %.thread, label %5

5:                                                ; preds = %3
  %6 = getelementptr inbounds nuw i8, ptr %0, i64 3512
  %7 = load i16, ptr %6, align 8, !tbaa !87
  switch i16 %7, label %8 [
    i16 4, label %.thread
    i16 6, label %.thread
  ]

8:                                                ; preds = %5
  %9 = load i8, ptr %1, align 1, !tbaa !101
  switch i8 %9, label %10 [
    i8 5, label %.thread
    i8 -1, label %.thread
  ]

10:                                               ; preds = %8
  %11 = getelementptr inbounds nuw i8, ptr %1, i64 2
  %12 = load i8, ptr %11, align 1, !tbaa !101
  %13 = icmp eq i8 %12, -1
  br i1 %13, label %14, label %22

14:                                               ; preds = %10
  %15 = getelementptr inbounds nuw i8, ptr %1, i64 4
  %16 = load i8, ptr %15, align 1, !tbaa !101
  %17 = zext i8 %16 to i64
  %18 = getelementptr inbounds nuw [257 x i8], ptr @_ZL16SonySubstitution, i64 0, i64 %17
  %19 = load i8, ptr %18, align 1, !tbaa !101
  %20 = uitofp i8 %19 to float
  %21 = getelementptr inbounds nuw i8, ptr %0, i64 4720
  store float %20, ptr %21, align 8, !tbaa !127
  br label %22

22:                                               ; preds = %14, %10
  %23 = getelementptr inbounds nuw i8, ptr %0, i64 5002
  %24 = load i16, ptr %23, align 2, !tbaa !128
  %25 = icmp eq i16 %24, -1
  br i1 %25, label %26, label %34

26:                                               ; preds = %22
  %27 = getelementptr inbounds nuw i8, ptr %1, i64 22
  %28 = load i8, ptr %27, align 1, !tbaa !101
  %29 = zext i8 %28 to i64
  %30 = getelementptr inbounds nuw [257 x i8], ptr @_ZL16SonySubstitution, i64 0, i64 %29
  %31 = load i8, ptr %30, align 1, !tbaa !101
  %32 = and i8 %31, 127
  %33 = zext nneg i8 %32 to i16
  store i16 %33, ptr %23, align 2, !tbaa !128
  br label %34

34:                                               ; preds = %26, %22
  %.not = icmp eq i16 %2, 23
  br i1 %.not, label %.thread, label %35

35:                                               ; preds = %34
  %36 = getelementptr inbounds nuw i8, ptr %1, i64 23
  %37 = load i8, ptr %36, align 1, !tbaa !101
  %38 = zext i8 %37 to i64
  %39 = getelementptr inbounds nuw [257 x i8], ptr @_ZL16SonySubstitution, i64 0, i64 %38
  %40 = load i8, ptr %39, align 1, !tbaa !101
  %41 = zext i8 %40 to i16
  %42 = getelementptr inbounds nuw i8, ptr %0, i64 3530
  store i16 %41, ptr %42, align 2, !tbaa !129
  %43 = icmp ult i16 %2, 46
  %.not12 = icmp eq i16 %7, 1
  %or.cond = or i1 %43, %.not12
  br i1 %or.cond, label %.thread, label %44

44:                                               ; preds = %35
  %45 = getelementptr inbounds nuw i8, ptr %1, i64 45
  %46 = load i8, ptr %45, align 1, !tbaa !101
  %47 = zext i8 %46 to i64
  %48 = getelementptr inbounds nuw [257 x i8], ptr @_ZL16SonySubstitution, i64 0, i64 %47
  %49 = load i8, ptr %48, align 1, !tbaa !101
  %50 = zext i8 %49 to i16
  %51 = getelementptr inbounds nuw i8, ptr %0, i64 3560
  store i16 %50, ptr %51, align 8, !tbaa !130
  br label %.thread

.thread:                                          ; preds = %34, %8, %8, %5, %5, %35, %44, %3
  ret void
}